ARM GAS  /tmp/ccKRSc0E.s 			page 1


   1              		.cpu cortex-m4
   2              		.eabi_attribute 27, 1
   3              		.eabi_attribute 28, 1
   4              		.eabi_attribute 20, 1
   5              		.eabi_attribute 21, 1
   6              		.eabi_attribute 23, 3
   7              		.eabi_attribute 24, 1
   8              		.eabi_attribute 25, 1
   9              		.eabi_attribute 26, 1
  10              		.eabi_attribute 30, 2
  11              		.eabi_attribute 34, 1
  12              		.eabi_attribute 18, 4
  13              		.file	"main.c"
  14              		.text
  15              	.Ltext0:
  16              		.cfi_sections	.debug_frame
  17              		.section	.text.startup.main,"ax",%progbits
  18              		.align	1
  19              		.p2align 4,,15
  20              		.global	main
  21              		.syntax unified
  22              		.thumb
  23              		.thumb_func
  24              		.fpu fpv4-sp-d16
  25              		.type	main, %function
  26              	main:
  27              	.LFB259:
  28              		.file 1 "main.c"
  29              		.loc 1 20 0
  30              		.cfi_startproc
  31              		@ Volatile: function does not return.
  32              		@ args = 0, pretend = 0, frame = 8
  33              		@ frame_needed = 0, uses_anonymous_args = 0
  34 0000 00B5     		push	{lr}
  35              		.cfi_def_cfa_offset 4
  36              		.cfi_offset 14, -4
  37 0002 124B     		ldr	r3, .L6
  38              		.loc 1 50 0
  39 0004 124C     		ldr	r4, .L6+4
  40              		.loc 1 20 0
  41 0006 1B68     		ldr	r3, [r3]
  42 0008 83B0     		sub	sp, sp, #12
  43              		.cfi_def_cfa_offset 16
  44              		.loc 1 20 0
  45 000a 0193     		str	r3, [sp, #4]
  46              		.loc 1 22 0
  47 000c FFF7FEFF 		bl	halInit
  48              	.LVL0:
  49              		.loc 1 23 0
  50 0010 FFF7FEFF 		bl	chSysInit
  51              	.LVL1:
  52              		.loc 1 24 0
  53 0014 FFF7FEFF 		bl	mpu_init
  54              	.LVL2:
  55              		.loc 1 27 0
  56 0018 FFF7FEFF 		bl	clear_leds
  57              	.LVL3:
ARM GAS  /tmp/ccKRSc0E.s 			page 2


  58              		.loc 1 28 0
  59 001c FFF7FEFF 		bl	spi_comm_start
  60              	.LVL4:
  61              		.loc 1 31 0
  62 0020 FFF7FEFF 		bl	motors_init
  63              	.LVL5:
  64              	.L2:
  65              		.loc 1 45 0 discriminator 1
  66 0024 0220     		movs	r0, #2
  67 0026 FFF7FEFF 		bl	set_body_led
  68              	.LVL6:
  69              		.loc 1 47 0 discriminator 1
  70 002a 4FF47A70 		mov	r0, #1000
  71 002e FFF7FEFF 		bl	chThdSleep
  72              	.LVL7:
  73              		.loc 1 50 0 discriminator 1
  74 0032 2046     		mov	r0, r4
  75 0034 FFF7FEFF 		bl	left_motor_set_speed
  76              	.LVL8:
  77              		.loc 1 51 0 discriminator 1
  78 0038 4FF49670 		mov	r0, #300
  79 003c FFF7FEFF 		bl	right_motor_set_speed
  80              	.LVL9:
  81              		.loc 1 53 0 discriminator 1
  82 0040 4FF47A70 		mov	r0, #1000
  83 0044 FFF7FEFF 		bl	chThdSleep
  84              	.LVL10:
  85 0048 ECE7     		b	.L2
  86              	.L7:
  87 004a 00BF     		.align	2
  88              	.L6:
  89 004c 00000000 		.word	__stack_chk_guard
  90 0050 D4FEFFFF 		.word	-300
  91              		.cfi_endproc
  92              	.LFE259:
  93              		.size	main, .-main
  94              		.section	.text.__stack_chk_fail,"ax",%progbits
  95              		.align	1
  96              		.p2align 4,,15
  97              		.global	__stack_chk_fail
  98              		.syntax unified
  99              		.thumb
 100              		.thumb_func
 101              		.fpu fpv4-sp-d16
 102              		.type	__stack_chk_fail, %function
 103              	__stack_chk_fail:
 104              	.LFB260:
 105              		.loc 1 61 0
 106              		.cfi_startproc
 107              		@ args = 0, pretend = 0, frame = 8
 108              		@ frame_needed = 0, uses_anonymous_args = 0
 109 0000 00B5     		push	{lr}
 110              		.cfi_def_cfa_offset 4
 111              		.cfi_offset 14, -4
 112 0002 084B     		ldr	r3, .L13
 113 0004 83B0     		sub	sp, sp, #12
 114              		.cfi_def_cfa_offset 16
ARM GAS  /tmp/ccKRSc0E.s 			page 3


 115              		.loc 1 61 0
 116 0006 1A68     		ldr	r2, [r3]
 117 0008 0192     		str	r2, [sp, #4]
 118              		.loc 1 62 0
 119 000a 019A     		ldr	r2, [sp, #4]
 120 000c 1B68     		ldr	r3, [r3]
 121 000e 9A42     		cmp	r2, r3
 122 0010 05D1     		bne	.L12
 123 0012 0548     		ldr	r0, .L13+4
 124              		.loc 1 63 0
 125 0014 03B0     		add	sp, sp, #12
 126              		.cfi_remember_state
 127              		.cfi_def_cfa_offset 4
 128              		@ sp needed
 129 0016 5DF804EB 		ldr	lr, [sp], #4
 130              		.cfi_restore 14
 131              		.cfi_def_cfa_offset 0
 132              		.loc 1 62 0
 133 001a FFF7FEBF 		b	chSysHalt
 134              	.LVL11:
 135              	.L12:
 136              		.cfi_restore_state
 137 001e FFF7FEFF 		bl	__stack_chk_fail
 138              	.LVL12:
 139              	.L14:
 140 0022 00BF     		.align	2
 141              	.L13:
 142 0024 00000000 		.word	__stack_chk_guard
 143 0028 00000000 		.word	.LC0
 144              		.cfi_endproc
 145              	.LFE260:
 146              		.size	__stack_chk_fail, .-__stack_chk_fail
 147              		.global	__stack_chk_guard
 148              		.section	.data.__stack_chk_guard,"aw",%progbits
 149              		.align	2
 150              		.type	__stack_chk_guard, %object
 151              		.size	__stack_chk_guard, 4
 152              	__stack_chk_guard:
 153 0000 96E3DEE2 		.word	-488709226
 154              		.section	.rodata.__stack_chk_fail.str1.4,"aMS",%progbits,1
 155              		.align	2
 156              	.LC0:
 157 0000 53746163 		.ascii	"Stack smashing detected\000"
 157      6B20736D 
 157      61736869 
 157      6E672064 
 157      65746563 
 158              		.text
 159              	.Letext0:
 160              		.file 2 "/home/uos/Documents/e-puckLab/Eclipse_e-puck2/Tools/gcc-arm-none-eabi-7-2017-q4-major/arm
 161              		.file 3 "/home/uos/Documents/e-puckLab/Eclipse_e-puck2/Tools/gcc-arm-none-eabi-7-2017-q4-major/lib
 162              		.file 4 "/home/uos/Documents/e-puckLab/Eclipse_e-puck2/Tools/gcc-arm-none-eabi-7-2017-q4-major/arm
 163              		.file 5 "/home/uos/Documents/e-puckLab/Eclipse_e-puck2/Tools/gcc-arm-none-eabi-7-2017-q4-major/arm
 164              		.file 6 "/home/uos/Documents/e-puckLab/Eclipse_e-puck2/Tools/gcc-arm-none-eabi-7-2017-q4-major/arm
 165              		.file 7 "/home/uos/Documents/e-puckLab/Eclipse_e-puck2/Tools/gcc-arm-none-eabi-7-2017-q4-major/arm
 166              		.file 8 "/home/uos/Documents/e-puckLab/Eclipse_e-puck2/Tools/gcc-arm-none-eabi-7-2017-q4-major/arm
 167              		.file 9 "/home/uos/Documents/e-puckLab/Eclipse_e-puck2/Tools/gcc-arm-none-eabi-7-2017-q4-major/arm
ARM GAS  /tmp/ccKRSc0E.s 			page 4


 168              		.file 10 "../e-puck2_main-processor/ChibiOS//os/rt/ports/ARMCMx/compilers/GCC/chtypes.h"
 169              		.file 11 "../e-puck2_main-processor/ChibiOS//os/rt/include/chsystypes.h"
 170              		.file 12 "../e-puck2_main-processor/ChibiOS//os/rt/include/chschd.h"
 171              		.file 13 "../e-puck2_main-processor/ChibiOS//os/ext/CMSIS/include/core_cm4.h"
 172              		.file 14 "../e-puck2_main-processor/ChibiOS//os/ext/CMSIS/ST/system_stm32f4xx.h"
 173              		.file 15 "../e-puck2_main-processor/ChibiOS//os/ext/CMSIS/ST/stm32f407xx.h"
 174              		.file 16 "../e-puck2_main-processor/ChibiOS//os/rt/ports/ARMCMx/chcore.h"
 175              		.file 17 "../e-puck2_main-processor/ChibiOS//os/rt/ports/ARMCMx/chcore_v7m.h"
 176              		.file 18 "../e-puck2_main-processor/ChibiOS//os/rt/include/chdebug.h"
 177              		.file 19 "../e-puck2_main-processor/ChibiOS//os/rt/include/chtm.h"
 178              		.file 20 "../e-puck2_main-processor/ChibiOS//os/rt/include/chstats.h"
 179              		.file 21 "../e-puck2_main-processor/ChibiOS//os/rt/include/chsem.h"
 180              		.file 22 "../e-puck2_main-processor/ChibiOS//os/rt/include/chmtx.h"
 181              		.file 23 "../e-puck2_main-processor/ChibiOS//os/rt/include/chregistry.h"
 182              		.file 24 "../e-puck2_main-processor/ChibiOS//os/rt/include/chevents.h"
 183              		.file 25 "../e-puck2_main-processor/ChibiOS//os/rt/include/chqueues.h"
 184              		.file 26 "../e-puck2_main-processor/ChibiOS//os/hal/ports/STM32/STM32F4xx/stm32_dma.h"
 185              		.file 27 "../e-puck2_main-processor/ChibiOS//os/hal/include/hal_ioblock.h"
 186              		.file 28 "../e-puck2_main-processor/ChibiOS//os/hal/ports/STM32/LLD/GPIOv2/pal_lld.h"
 187              		.file 29 "../e-puck2_main-processor/ChibiOS//os/hal/include/adc.h"
 188              		.file 30 "../e-puck2_main-processor/ChibiOS//os/hal/ports/STM32/STM32F4xx/adc_lld.h"
 189              		.file 31 "../e-puck2_main-processor/ChibiOS//os/hal/include/can.h"
 190              		.file 32 "../e-puck2_main-processor/ChibiOS//os/hal/ports/STM32/LLD/can_lld.h"
 191              		.file 33 "../e-puck2_main-processor/ChibiOS//os/hal/include/dac.h"
 192              		.file 34 "../e-puck2_main-processor/ChibiOS//os/hal/ports/STM32/LLD/DACv1/dac_lld.h"
 193              		.file 35 "../e-puck2_main-processor/ChibiOS//os/hal/include/ext.h"
 194              		.file 36 "../e-puck2_main-processor/ChibiOS//os/hal/ports/STM32/LLD/ext_lld.h"
 195              		.file 37 "../e-puck2_main-processor/ChibiOS//os/hal/include/gpt.h"
 196              		.file 38 "../e-puck2_main-processor/ChibiOS//os/hal/ports/STM32/LLD/TIMv1/gpt_lld.h"
 197              		.file 39 "../e-puck2_main-processor/ChibiOS//os/hal/ports/STM32/LLD/TIMv1/stm32_tim.h"
 198              		.file 40 "../e-puck2_main-processor/ChibiOS//os/hal/include/i2c.h"
 199              		.file 41 "../e-puck2_main-processor/ChibiOS//os/hal/ports/STM32/LLD/I2Cv1/i2c_lld.h"
 200              		.file 42 "../e-puck2_main-processor/ChibiOS//os/hal/include/i2s.h"
 201              		.file 43 "../e-puck2_main-processor/ChibiOS//os/hal/ports/STM32/LLD/SPIv1/i2s_lld.h"
 202              		.file 44 "../e-puck2_main-processor/ChibiOS//os/hal/include/pwm.h"
 203              		.file 45 "../e-puck2_main-processor/ChibiOS//os/hal/ports/STM32/LLD/TIMv1/pwm_lld.h"
 204              		.file 46 "../e-puck2_main-processor/ChibiOS//os/hal/include/serial.h"
 205              		.file 47 "../e-puck2_main-processor/ChibiOS//os/hal/ports/STM32/LLD/USARTv1/serial_lld.h"
 206              		.file 48 "../e-puck2_main-processor/ChibiOS//os/hal/include/sdc.h"
 207              		.file 49 "../e-puck2_main-processor/ChibiOS//os/hal/ports/STM32/LLD/sdc_lld.h"
 208              		.file 50 "../e-puck2_main-processor/ChibiOS//os/hal/include/spi.h"
 209              		.file 51 "../e-puck2_main-processor/ChibiOS//os/hal/ports/STM32/LLD/SPIv1/spi_lld.h"
 210              		.file 52 "../e-puck2_main-processor/ChibiOS//os/hal/include/usb.h"
 211              		.file 53 "../e-puck2_main-processor/ChibiOS//os/hal/ports/STM32/LLD/OTGv1/usb_lld.h"
 212              		.file 54 "../e-puck2_main-processor/ChibiOS//os/hal/ports/STM32/LLD/OTGv1/stm32_otg.h"
 213              		.file 55 "/home/uos/Documents/e-puckLab/Eclipse_e-puck2/Tools/gcc-arm-none-eabi-7-2017-q4-major/ar
 214              		.file 56 "../e-puck2_main-processor/src/msgbus/messagebus.h"
 215              		.file 57 "../e-puck2_main-processor/src/parameter/parameter.h"
 216              		.file 58 "./main.h"
 217              		.file 59 "../e-puck2_main-processor/src/motors.h"
 218              		.file 60 "../e-puck2_main-processor/ChibiOS//os/rt/include/chsys.h"
 219              		.file 61 "../e-puck2_main-processor/ChibiOS//os/hal/include/hal.h"
 220              		.file 62 "../e-puck2_main-processor/src/memory_protection.h"
 221              		.file 63 "../e-puck2_main-processor/src/leds.h"
 222              		.file 64 "../e-puck2_main-processor/src/spi_comm.h"
 223              		.file 65 "../e-puck2_main-processor/ChibiOS//os/rt/include/chthreads.h"